; Function Attrs: mustprogress nofree norecurse nosync nounwind memory(readwrite, inaccessiblemem: none) uwtable
define hidden void @_ZN13Domain_Filter5diffyERKN2cv3MatERS1_(ptr noundef nonnull readnone align 8 captures(none) dereferenceable(768) %0, ptr noundef nonnull readonly align 8 captures(none) dereferenceable(96) %1, ptr noundef nonnull readonly align 8 captures(none) dereferenceable(96) %2) local_unnamed_addr #3 align 2 {
  %4 = load i32, ptr %1, align 8, !tbaa !3
  %5 = lshr i32 %4, 3
  %6 = and i32 %5, 511
  %7 = add nuw nsw i32 %6, 1
  %8 = getelementptr inbounds nuw i8, ptr %1, i64 64
  %9 = load ptr, ptr %8, align 8, !tbaa !16
  %10 = getelementptr inbounds nuw i8, ptr %9, i64 4
  %11 = load i32, ptr %10, align 4, !tbaa !17
  %12 = load i32, ptr %9, align 4, !tbaa !17
  %13 = add i32 %12, -1
  %14 = icmp sgt i32 %12, 1
  br i1 %14, label %.preheader32.lr.ph, label %._crit_edge36

.preheader32.lr.ph:                               ; preds = %3
  %15 = icmp sgt i32 %11, 0
  %16 = getelementptr inbounds nuw i8, ptr %1, i64 16
  %17 = load ptr, ptr %16, align 8
  %18 = getelementptr inbounds nuw i8, ptr %2, i64 16
  %19 = load ptr, ptr %18, align 8
  br i1 %15, label %.preheader32.lr.ph.split.us, label %._crit_edge36

.preheader32.lr.ph.split.us:                      ; preds = %.preheader32.lr.ph
  %20 = getelementptr inbounds nuw i8, ptr %2, i64 72
  %21 = load ptr, ptr %20, align 8
  %22 = getelementptr inbounds nuw i8, ptr %1, i64 72
  %23 = load ptr, ptr %22, align 8
  %24 = load i64, ptr %23, align 8, !tbaa !18
  %25 = load i64, ptr %21, align 8, !tbaa !18
  %26 = zext nneg i32 %7 to i64
  %wide.trip.count47 = zext nneg i32 %13 to i64
  %wide.trip.count42 = zext nneg i32 %11 to i64
  br label %.preheader32.us

.preheader32.us:                                  ; preds = %._crit_edge.us, %.preheader32.lr.ph.split.us
  %indvars.iv44 = phi i64 [ %indvars.iv.next45, %._crit_edge.us ], [ 0, %.preheader32.lr.ph.split.us ]
  %indvars.iv.next45 = add nuw nsw i64 %indvars.iv44, 1
  %27 = mul i64 %24, %indvars.iv.next45
  %28 = getelementptr inbounds nuw i8, ptr %17, i64 %27
  %29 = mul i64 %24, %indvars.iv44
  %30 = getelementptr inbounds nuw i8, ptr %17, i64 %29
  %31 = mul i64 %25, %indvars.iv44
  %32 = getelementptr inbounds nuw i8, ptr %19, i64 %31
  br label %.preheader.us

33:                                               ; preds = %.preheader.us, %33
  %indvars.iv = phi i64 [ 0, %.preheader.us ], [ %indvars.iv.next, %33 ]
  %34 = add nuw nsw i64 %indvars.iv, %42
  %35 = getelementptr inbounds nuw float, ptr %28, i64 %34
  %36 = load float, ptr %35, align 4, !tbaa !20
  %37 = getelementptr inbounds nuw float, ptr %30, i64 %34
  %38 = load float, ptr %37, align 4, !tbaa !20
  %39 = fsub float %36, %38
  %40 = getelementptr inbounds nuw float, ptr %32, i64 %34
  store float %39, ptr %40, align 4, !tbaa !20
  %indvars.iv.next = add nuw nsw i64 %indvars.iv, 1
  %exitcond.not = icmp eq i64 %indvars.iv.next, %26
  br i1 %exitcond.not, label %41, label %33, !llvm.loop !26

41:                                               ; preds = %33
  %indvars.iv.next40 = add nuw nsw i64 %indvars.iv39, 1
  %exitcond43.not = icmp eq i64 %indvars.iv.next40, %wide.trip.count42
  br i1 %exitcond43.not, label %._crit_edge.us, label %.preheader.us, !llvm.loop !27

.preheader.us:                                    ; preds = %.preheader32.us, %41
  %indvars.iv39 = phi i64 [ 0, %.preheader32.us ], [ %indvars.iv.next40, %41 ]
  %42 = mul nuw nsw i64 %indvars.iv39, %26
  br label %33

._crit_edge.us:                                   ; preds = %41
  %exitcond48.not = icmp eq i64 %indvars.iv.next45, %wide.trip.count47
  br i1 %exitcond48.not, label %._crit_edge36, label %.preheader32.us, !llvm.loop !28

._crit_edge36:                                    ; preds = %._crit_edge.us, %.preheader32.lr.ph, %3
  ret void
}